target datalayout = "e-m:e-p270:32:32-p271:32:32-p272:64:64-i64:64-i128:128-f80:128-n8:16:32:64-S128"
target triple = "x86_64-unknown-linux-gnu"

%"class.icu_75::Normalizer2DataBuilder" = type <{ %"class.icu_75::Norms", i32, i32, i32, [20 x i32], [4 x i8], ptr, i32, [4 x i8], %"class.icu_75::UnicodeString", [256 x i8], [4 x i8], [4 x i8] }>
%"class.icu_75::Norms" = type { %"class.icu_75::UnicodeSet", %"class.icu_75::UnicodeSet", ptr, ptr, ptr }
%"class.icu_75::UnicodeSet" = type <{ %"class.icu_75::UnicodeFilter", ptr, i32, i32, i8, [7 x i8], ptr, ptr, i32, [4 x i8], ptr, i32, [4 x i8], ptr, ptr, [25 x i32], [4 x i8] }>
%"class.icu_75::UnicodeFilter" = type { %"class.icu_75::UnicodeFunctor", %"class.icu_75::UnicodeMatcher" }
%"class.icu_75::UnicodeFunctor" = type { %"class.icu_75::UObject" }
%"class.icu_75::UObject" = type { ptr }
%"class.icu_75::UnicodeMatcher" = type { ptr }
%"class.icu_75::UnicodeString" = type { %"class.icu_75::Replaceable", %"union.icu_75::UnicodeString::StackBufferOrFields" }
%"class.icu_75::Replaceable" = type { %"class.icu_75::UObject" }
%"union.icu_75::UnicodeString::StackBufferOrFields" = type { %struct.anon.0, [32 x i8] }
%struct.anon.0 = type { i16, i32, i32, ptr }
%struct.anon = type { i16, [27 x i16] }

@_ZTVN6icu_7513UnicodeStringE = external unnamed_addr constant { [13 x ptr] }, align 8
@_ZTVN6icu_7511ReplaceableE = external unnamed_addr constant { [13 x ptr] }, align 8
@_ZTVN6icu_757UObjectE = external unnamed_addr constant { [5 x ptr] }, align 8

; Function Attrs: mustprogress nounwind uwtable
define linkonce_odr dso_local void @_ZN6icu_757UObjectC2Ev(ptr noundef nonnull align 8 dereferenceable(8) %this) unnamed_addr #0 comdat align 2 {
entry:
  %this.addr = alloca ptr, align 8
  store ptr %this, ptr %this.addr, align 8
  %this1 = load ptr, ptr %this.addr, align 8
  store ptr getelementptr inbounds ({ [5 x ptr] }, ptr @_ZTVN6icu_757UObjectE, i32 0, i32 0, i32 2), ptr %this1, align 8
  ret void
}

; Function Attrs: mustprogress nounwind uwtable
define linkonce_odr dso_local void @_ZN6icu_7511ReplaceableC2Ev(ptr noundef nonnull align 8 dereferenceable(8) %this) unnamed_addr #0 comdat align 2 {
entry:
  %this.addr = alloca ptr, align 8
  store ptr %this, ptr %this.addr, align 8
  %this1 = load ptr, ptr %this.addr, align 8
  call void @_ZN6icu_757UObjectC2Ev(ptr noundef nonnull align 8 dereferenceable(8) %this1) #12
  store ptr getelementptr inbounds ({ [13 x ptr] }, ptr @_ZTVN6icu_7511ReplaceableE, i32 0, i32 0, i32 2), ptr %this1, align 8
  ret void
}

; Function Attrs: mustprogress uwtable
define linkonce_odr dso_local void @_ZN6icu_7513UnicodeStringC2Ev(ptr noundef nonnull align 8 dereferenceable(64) %this) unnamed_addr #1 comdat align 2 {
entry:
  %this.addr = alloca ptr, align 8
  store ptr %this, ptr %this.addr, align 8
  %this1 = load ptr, ptr %this.addr, align 8
  call void @_ZN6icu_7511ReplaceableC2Ev(ptr noundef nonnull align 8 dereferenceable(8) %this1)
  store ptr getelementptr inbounds ({ [13 x ptr] }, ptr @_ZTVN6icu_7513UnicodeStringE, i32 0, i32 0, i32 2), ptr %this1, align 8
  %fUnion2 = getelementptr inbounds %"class.icu_75::UnicodeString", ptr %this1, i32 0, i32 1
  %fLengthAndFlags = getelementptr inbounds %struct.anon, ptr %fUnion2, i32 0, i32 0
  store i16 2, ptr %fLengthAndFlags, align 8
  ret void
}

; Function Attrs: mustprogress uwtable
define dso_local void @_ZN6icu_7522Normalizer2DataBuilderC2ER10UErrorCode(ptr noundef nonnull align 8 dereferenceable(860) %this, ptr noundef nonnull align 4 dereferenceable(4) %errorCode) unnamed_addr #1 align 2 personality ptr @__gxx_personality_v0 {
entry:
  %this.addr = alloca ptr, align 8
  %errorCode.addr = alloca ptr, align 8
  %exn.slot = alloca ptr, align 8
  %ehselector.slot = alloca i32, align 4
  store ptr %this, ptr %this.addr, align 8
  store ptr %errorCode, ptr %errorCode.addr, align 8
  %this1 = load ptr, ptr %this.addr, align 8
  %norms = getelementptr inbounds %"class.icu_75::Normalizer2DataBuilder", ptr %this1, i32 0, i32 0
  %0 = load ptr, ptr %errorCode.addr, align 8
  call void @_ZN6icu_755NormsC1ER10UErrorCode(ptr noundef nonnull align 8 dereferenceable(424) %norms, ptr noundef nonnull align 4 dereferenceable(4) %0)
  %phase = getelementptr inbounds %"class.icu_75::Normalizer2DataBuilder", ptr %this1, i32 0, i32 1
  store i32 0, ptr %phase, align 8
  %overrideHandling = getelementptr inbounds %"class.icu_75::Normalizer2DataBuilder", ptr %this1, i32 0, i32 2
  store i32 2, ptr %overrideHandling, align 4
  %optimization = getelementptr inbounds %"class.icu_75::Normalizer2DataBuilder", ptr %this1, i32 0, i32 3
  store i32 0, ptr %optimization, align 8
  %norm16TrieBytes = getelementptr inbounds %"class.icu_75::Normalizer2DataBuilder", ptr %this1, i32 0, i32 6
  store ptr null, ptr %norm16TrieBytes, align 8
  %norm16TrieLength = getelementptr inbounds %"class.icu_75::Normalizer2DataBuilder", ptr %this1, i32 0, i32 7
  store i32 0, ptr %norm16TrieLength, align 8
  %extraData = getelementptr inbounds %"class.icu_75::Normalizer2DataBuilder", ptr %this1, i32 0, i32 9
  invoke void @_ZN6icu_7513UnicodeStringC2Ev(ptr noundef nonnull align 8 dereferenceable(64) %extraData)
          to label %invoke.cont unwind label %lpad

invoke.cont:                                      ; preds = %entry
  %unicodeVersion = getelementptr inbounds %"class.icu_75::Normalizer2DataBuilder", ptr %this1, i32 0, i32 11
  %arraydecay = getelementptr inbounds [4 x i8], ptr %unicodeVersion, i64 0, i64 0
  call void @llvm.memset.p0.i64(ptr align 8 %arraydecay, i8 0, i64 4, i1 false)
  %indexes = getelementptr inbounds %"class.icu_75::Normalizer2DataBuilder", ptr %this1, i32 0, i32 4
  %arraydecay2 = getelementptr inbounds [20 x i32], ptr %indexes, i64 0, i64 0
  call void @llvm.memset.p0.i64(ptr align 4 %arraydecay2, i8 0, i64 80, i1 false)
  %smallFCD = getelementptr inbounds %"class.icu_75::Normalizer2DataBuilder", ptr %this1, i32 0, i32 10
  %arraydecay3 = getelementptr inbounds [256 x i8], ptr %smallFCD, i64 0, i64 0
  call void @llvm.memset.p0.i64(ptr align 8 %arraydecay3, i8 0, i64 256, i1 false)
  ret void

lpad:                                             ; preds = %entry
  %1 = landingpad { ptr, i32 }
          cleanup
  %2 = extractvalue { ptr, i32 } %1, 0
  store ptr %2, ptr %exn.slot, align 8
  %3 = extractvalue { ptr, i32 } %1, 1
  store i32 %3, ptr %ehselector.slot, align 4
  call void @_ZN6icu_755NormsD1Ev(ptr noundef nonnull align 8 dereferenceable(424) %norms) #12
  br label %eh.resume

eh.resume:                                        ; preds = %lpad
  %exn = load ptr, ptr %exn.slot, align 8
  %sel = load i32, ptr %ehselector.slot, align 4
  %lpad.val = insertvalue { ptr, i32 } poison, ptr %exn, 0
  %lpad.val4 = insertvalue { ptr, i32 } %lpad.val, i32 %sel, 1
  resume { ptr, i32 } %lpad.val4
}