; Function Attrs: mustprogress uwtable
define dso_local void @_ZN6icu_7522Normalizer2DataBuilderC2ER10UErrorCode(ptr noundef nonnull align 8 dereferenceable(860) %this, ptr noundef nonnull align 4 dereferenceable(4) %errorCode) unnamed_addr #1 align 2 personality ptr @__gxx_personality_v0 {
invoke.cont:
  tail call void @_ZN6icu_755NormsC1ER10UErrorCode(ptr noundef nonnull align 8 dereferenceable(424) %this, ptr noundef nonnull align 4 dereferenceable(4) %errorCode)
  %phase = getelementptr inbounds i8, ptr %this, i64 424
  store i32 0, ptr %phase, align 8
  %overrideHandling = getelementptr inbounds i8, ptr %this, i64 428
  store i32 2, ptr %overrideHandling, align 4
  %optimization = getelementptr inbounds i8, ptr %this, i64 432
  store i32 0, ptr %optimization, align 8
  %norm16TrieBytes = getelementptr inbounds i8, ptr %this, i64 520
  store ptr null, ptr %norm16TrieBytes, align 8
  %norm16TrieLength = getelementptr inbounds i8, ptr %this, i64 528
  store i32 0, ptr %norm16TrieLength, align 8
  %extraData = getelementptr inbounds i8, ptr %this, i64 536
  store ptr getelementptr inbounds ({ [13 x ptr] }, ptr @_ZTVN6icu_7513UnicodeStringE, i64 0, i32 0, i64 2), ptr %extraData, align 8
  %fUnion2.i = getelementptr inbounds i8, ptr %this, i64 544
  store i16 2, ptr %fUnion2.i, align 8
  %indexes = getelementptr inbounds i8, ptr %this, i64 436
  tail call void @llvm.memset.p0.i64(ptr noundef nonnull align 4 dereferenceable(80) %indexes, i8 0, i64 80, i1 false)
  %smallFCD = getelementptr inbounds i8, ptr %this, i64 600
  tail call void @llvm.memset.p0.i64(ptr noundef nonnull align 8 dereferenceable(260) %smallFCD, i8 0, i64 260, i1 false)
  ret void
}